; Function Attrs: nofree norecurse nosync nounwind memory(argmem: read) uwtable
define ptr @lv_iter_get_context(ptr noundef readonly %0) local_unnamed_addr #2 {
  %.not = icmp eq ptr %0, null
  br i1 %.not, label %.preheader, label %2

.preheader:                                       ; preds = %1, %.preheader
  br label %.preheader

2:                                                ; preds = %1
  %3 = getelementptr inbounds nuw i8, ptr %0, i64 16
  %4 = load ptr, ptr %3, align 8, !tbaa !12
  ret ptr %4
}